TN:
SF:/workspace/include/DataSink.h
FNL:0,8,8
FNA:0,0,_ZN9CDataSinkD0Ev
FNA:0,6,_ZN9CDataSinkD2Ev
FNF:1
FNH:1
DA:8,6
LF:1
LH:1
end_of_record
TN:
SF:/workspace/include/DataSource.h
FNL:0,8,8
FNA:0,0,_ZN11CDataSourceD0Ev
FNA:0,22,_ZN11CDataSourceD2Ev
FNF:1
FNH:1
DA:8,22
LF:1
LH:1
end_of_record
TN:
SF:/workspace/src/SVGWriter.cpp
FNL:0,35,37
FNA:0,0,_ZN10CSVGWriterC2ESt10shared_ptrI9CDataSinkEii
FNL:1,39,41
FNA:1,0,_ZN10CSVGWriterD2Ev
FNL:2,43,45
FNA:2,0,_ZN10CSVGWriter6CircleERK9SSVGPointdRKSt6vectorISt4pairINSt7__cxx1112basic_stringIcSt11char_traitsIcESaIcEEESA_ESaISB_EE
FNL:3,47,49
FNA:3,0,_ZN10CSVGWriter8RectangeERK9SSVGPointRK8SSVGSizeRKSt6vectorISt4pairINSt7__cxx1112basic_stringIcSt11char_traitsIcESaIcEEESD_ESaISE_EE
FNL:4,51,53
FNA:4,0,_ZN10CSVGWriter4LineERK9SSVGPointS2_RKSt6vectorISt4pairINSt7__cxx1112basic_stringIcSt11char_traitsIcESaIcEEESA_ESaISB_EE
FNL:5,55,57
FNA:5,0,_ZN10CSVGWriter10SimplePathESt6vectorI9SSVGPointSaIS1_EERKS0_ISt4pairINSt7__cxx1112basic_stringIcSt11char_traitsIcESaIcEEESA_ESaISB_EE
FNL:6,59,61
FNA:6,0,_ZN10CSVGWriter10GroupBeginERKSt6vectorISt4pairINSt7__cxx1112basic_stringIcSt11char_traitsIcESaIcEEES7_ESaIS8_EE
FNL:7,63,65
FNA:7,0,_ZN10CSVGWriter8GroupEndEv
FNL:8,9,11
FNA:8,0,_ZN10CSVGWriter15SImplementation6CircleERK9SSVGPointdRKSt6vectorISt4pairINSt7__cxx1112basic_stringIcSt11char_traitsIcESaIcEEESB_ESaISC_EE
FNF:9
FNH:0
DA:9,0
DA:35,0
DA:36,0
DA:37,0
DA:39,0
DA:41,0
DA:43,0
DA:44,0
DA:47,0
DA:51,0
DA:55,0
DA:59,0
DA:63,0
LF:13
LH:0
end_of_record
TN:
SF:/workspace/src/StringDataSink.cpp
FNL:0,12,15
FNA:0,4,_ZN15CStringDataSink5WriteERKSt6vectorIcSaIcEE
FNL:1,3,5
FNA:1,12,_ZNK15CStringDataSink6StringB5cxx11Ev
FNL:2,7,10
FNA:2,10,_ZN15CStringDataSink3PutERKc
FNF:3
FNH:3
DA:3,12
DA:4,12
DA:7,10
DA:8,10
DA:9,10
DA:12,4
DA:13,4
DA:14,4
LF:8
LH:8
end_of_record
TN:
SF:/workspace/src/StringDataSource.cpp
FNL:0,11,18
FNA:0,24,_ZN17CStringDataSource3GetERc
FNL:1,20,26
FNA:1,22,_ZN17CStringDataSource4PeekERc
FNL:2,28,40
FNA:2,6,_ZN17CStringDataSource4ReadERSt6vectorIcSaIcEEm
FNL:3,3,5
FNA:3,22,_ZN17CStringDataSourceC2ERKNSt7__cxx1112basic_stringIcSt11char_traitsIcESaIcEEE
FNL:4,7,9
FNA:4,4,_ZNK17CStringDataSource3EndEv
FNF:5
FNH:5
DA:3,22
DA:5,22
DA:7,4
DA:8,4
DA:11,24
DA:12,24
DA:13,18
DA:14,18
DA:15,18
DA:17,6
DA:20,22
DA:21,22
DA:22,18
DA:23,18
DA:25,4
DA:28,6
DA:29,6
DA:30,20
DA:32,18
DA:33,14
DA:36,4
DA:39,6
LF:22
LH:22
end_of_record
TN:
SF:/workspace/src/XMLReader.cpp
FNL:0,13,15
FNA:0,0,_ZN10CXMLReaderD2Ev
FNL:1,17,19
FNA:1,0,_ZNK10CXMLReader3EndEv
FNL:2,21,23
FNA:2,0,_ZN10CXMLReader10ReadEntityER10SXMLEntityb
FNL:3,9,11
FNA:3,0,_ZN10CXMLReaderC2ESt10shared_ptrI11CDataSourceE
FNF:4
FNH:0
DA:9,0
DA:11,0
DA:13,0
DA:15,0
DA:17,0
DA:21,0
LF:6
LH:0
end_of_record
TN:
SF:/workspace/src/svg.c
FNL:0,112,134
FNA:0,10,svg_group_begin
FNL:1,136,142
FNA:1,4,svg_group_end
FNL:2,25,44
FNA:2,46,svg_create
FNL:3,46,55
FNA:3,40,svg_destroy
FNL:4,57,73
FNA:4,12,svg_circle
FNL:5,76,92
FNA:5,10,svg_rect
FNL:6,94,110
FNA:6,10,svg_line
FNF:7
FNH:7
DA:25,46
DA:30,46
DA:32,40
DA:33,40
DA:34,40
DA:35,40
DA:39,40
DA:41,40
DA:43,40
DA:46,40
DA:47,40
DA:48,38
DA:50,18
DA:51,18
DA:53,18
DA:54,18
DA:57,12
DA:61,12
DA:64,8
DA:66,8
DA:67,4
DA:70,4
DA:71,4
DA:76,10
DA:80,10
DA:83,6
DA:85,6
DA:86,4
DA:89,2
DA:90,2
DA:94,10
DA:98,10
DA:101,6
DA:103,6
DA:104,2
DA:107,4
DA:108,4
DA:112,10
DA:114,10
DA:116,8
DA:117,2
DA:118,2
DA:119,2
DA:123,6
DA:125,6
DA:126,2
DA:129,4
DA:130,4
DA:131,4
DA:136,4
DA:137,4
DA:139,2
DA:140,2
DA:141,2
LF:54
LH:54
end_of_record
